target datalayout = "e-m:e-p270:32:32-p271:32:32-p272:64:64-i64:64-i128:128-f80:128-n8:16:32:64-S128"
target triple = "x86_64-pc-linux-gnu"

%struct.tm = type { i32, i32, i32, i32, i32, i32, i32, i32, i32, i64, ptr }

@vstats_filename = global ptr null, align 8
@.str.618 = private unnamed_addr constant [32 x i8] c"Unable to get current time: %s\0A\00", align 1
@.str.619 = private unnamed_addr constant [24 x i8] c"vstats_%02d%02d%02d.log\00", align 1

; Function Attrs: nounwind uwtable
define internal i32 @opt_vstats_file(ptr noundef %0, ptr noundef %1, ptr noundef %2) #0 {
  %4 = alloca ptr, align 8
  %5 = alloca ptr, align 8
  %6 = alloca ptr, align 8
  store ptr %0, ptr %4, align 8, !tbaa !26
  store ptr %1, ptr %5, align 8, !tbaa !23
  store ptr %2, ptr %6, align 8, !tbaa !23
  %7 = load ptr, ptr @vstats_filename, align 8, !tbaa !23
  call void @av_free(ptr noundef %7)
  %8 = load ptr, ptr %6, align 8, !tbaa !23
  %9 = call noalias ptr @av_strdup(ptr noundef %8)
  store ptr %9, ptr @vstats_filename, align 8, !tbaa !23
  ret i32 0
}

; Function Attrs: nounwind uwtable
define internal i32 @opt_vstats(ptr noundef %0, ptr noundef %1, ptr noundef %2) #0 {
  %4 = alloca i32, align 4
  %5 = alloca ptr, align 8
  %6 = alloca ptr, align 8
  %7 = alloca ptr, align 8
  %8 = alloca [40 x i8], align 16
  %9 = alloca i64, align 8
  %10 = alloca ptr, align 8
  %11 = alloca i32, align 4
  store ptr %0, ptr %5, align 8, !tbaa !26
  store ptr %1, ptr %6, align 8, !tbaa !23
  store ptr %2, ptr %7, align 8, !tbaa !23
  call void @llvm.lifetime.start.p0(i64 40, ptr %8) #12
  call void @llvm.lifetime.start.p0(i64 8, ptr %9) #12
  %12 = call i64 @time(ptr noundef null) #12
  store i64 %12, ptr %9, align 8, !tbaa !56
  call void @llvm.lifetime.start.p0(i64 8, ptr %10) #12
  %13 = call ptr @localtime(ptr noundef %9) #12
  store ptr %13, ptr %10, align 8, !tbaa !190
  %14 = load ptr, ptr %10, align 8, !tbaa !190
  %15 = icmp ne ptr %14, null
  br i1 %15, label %23, label %16

16:                                               ; preds = %3
  %17 = call ptr @__errno_location() #14
  %18 = load i32, ptr %17, align 4, !tbaa !16
  %19 = call ptr @strerror(i32 noundef %18) #12
  call void (ptr, i32, ptr, ...) @av_log(ptr noundef null, i32 noundef 8, ptr noundef @.str.618, ptr noundef %19)
  %20 = call ptr @__errno_location() #14
  %21 = load i32, ptr %20, align 4, !tbaa !16
  %22 = sub nsw i32 0, %21
  store i32 %22, ptr %4, align 4
  store i32 1, ptr %11, align 4
  br label %38

23:                                               ; preds = %3
  %24 = getelementptr inbounds [40 x i8], ptr %8, i64 0, i64 0
  %25 = load ptr, ptr %10, align 8, !tbaa !190
  %26 = getelementptr inbounds nuw %struct.tm, ptr %25, i32 0, i32 2
  %27 = load i32, ptr %26, align 8, !tbaa !192
  %28 = load ptr, ptr %10, align 8, !tbaa !190
  %29 = getelementptr inbounds nuw %struct.tm, ptr %28, i32 0, i32 1
  %30 = load i32, ptr %29, align 4, !tbaa !194
  %31 = load ptr, ptr %10, align 8, !tbaa !190
  %32 = getelementptr inbounds nuw %struct.tm, ptr %31, i32 0, i32 0
  %33 = load i32, ptr %32, align 8, !tbaa !195
  %34 = call i32 (ptr, i64, ptr, ...) @snprintf(ptr noundef %24, i64 noundef 40, ptr noundef @.str.619, i32 noundef %27, i32 noundef %30, i32 noundef %33) #12
  %35 = load ptr, ptr %6, align 8, !tbaa !23
  %36 = getelementptr inbounds [40 x i8], ptr %8, i64 0, i64 0
  %37 = call i32 @opt_vstats_file(ptr noundef null, ptr noundef %35, ptr noundef %36)
  store i32 %37, ptr %4, align 4
  store i32 1, ptr %11, align 4
  br label %38

38:                                               ; preds = %23, %16
  call void @llvm.lifetime.end.p0(i64 8, ptr %10) #12
  call void @llvm.lifetime.end.p0(i64 8, ptr %9) #12
  call void @llvm.lifetime.end.p0(i64 40, ptr %8) #12
  %39 = load i32, ptr %4, align 4
  ret i32 %39
}