; Function Attrs: nounwind uwtable
define internal range(i32 -2147483647, -2147483648) i32 @opt_vstats(ptr readnone captures(none) %0, ptr readnone captures(none) %1, ptr readnone captures(none) %2) #0 {
  %4 = alloca [40 x i8], align 16
  %5 = alloca i64, align 8
  call void @llvm.lifetime.start.p0(i64 40, ptr nonnull %4) #15
  call void @llvm.lifetime.start.p0(i64 8, ptr nonnull %5) #15
  %6 = tail call i64 @time(ptr noundef null) #15
  store i64 %6, ptr %5, align 8, !tbaa !39
  %7 = call ptr @localtime(ptr noundef nonnull %5) #15
  %.not = icmp eq ptr %7, null
  br i1 %.not, label %8, label %14

8:                                                ; preds = %3
  %9 = tail call ptr @__errno_location() #20
  %10 = load i32, ptr %9, align 4, !tbaa !38
  %11 = call ptr @strerror(i32 noundef %10) #15
  call void (ptr, i32, ptr, ...) @av_log(ptr noundef null, i32 noundef 8, ptr noundef nonnull @.str.618, ptr noundef %11) #15
  %12 = load i32, ptr %9, align 4, !tbaa !38
  %13 = sub nsw i32 0, %12
  br label %23

14:                                               ; preds = %3
  %15 = getelementptr inbounds nuw i8, ptr %7, i64 8
  %16 = load i32, ptr %15, align 8, !tbaa !168
  %17 = getelementptr inbounds nuw i8, ptr %7, i64 4
  %18 = load i32, ptr %17, align 4, !tbaa !170
  %19 = load i32, ptr %7, align 8, !tbaa !171
  %20 = call i32 (ptr, i64, ptr, ...) @snprintf(ptr noundef nonnull dereferenceable(1) %4, i64 noundef 40, ptr noundef nonnull @.str.619, i32 noundef %16, i32 noundef %18, i32 noundef %19) #15
  %21 = load ptr, ptr @vstats_filename, align 8, !tbaa !22
  call void @av_free(ptr noundef %21) #15
  %22 = call noalias ptr @av_strdup(ptr noundef nonnull %4) #15
  store ptr %22, ptr @vstats_filename, align 8, !tbaa !22
  br label %23

23:                                               ; preds = %14, %8
  %.0 = phi i32 [ 0, %14 ], [ %13, %8 ]
  call void @llvm.lifetime.end.p0(i64 8, ptr nonnull %5) #15
  call void @llvm.lifetime.end.p0(i64 40, ptr nonnull %4) #15
  ret i32 %.0
}